target datalayout = "e-m:e-p270:32:32-p271:32:32-p272:64:64-i64:64-i128:128-f80:128-n8:16:32:64-S128"
target triple = "x86_64-unknown-linux-gnu"

%"struct.nla::emonics::head_tail" = type { ptr, ptr }
%"struct.nla::emonics::cell" = type <{ ptr, i32, [4 x i8] }>

; Function Attrs: mustprogress nounwind uwtable
define hidden void @_ZN3nla7emonics11remove_cellERNS0_9head_tailE(ptr noundef nonnull align 8 dereferenceable(216) %this, ptr noundef nonnull align 8 dereferenceable(16) %v) #4 align 2 {
entry:
  %this.addr = alloca ptr, align 8
  %v.addr = alloca ptr, align 8
  %cur_head = alloca ptr, align 8
  %cur_tail = alloca ptr, align 8
  %old_head = alloca ptr, align 8
  store ptr %this, ptr %this.addr, align 8
  store ptr %v, ptr %v.addr, align 8
  %0 = load ptr, ptr %v.addr, align 8
  %m_head = getelementptr inbounds %"struct.nla::emonics::head_tail", ptr %0, i32 0, i32 0
  store ptr %m_head, ptr %cur_head, align 8
  %1 = load ptr, ptr %v.addr, align 8
  %m_tail = getelementptr inbounds %"struct.nla::emonics::head_tail", ptr %1, i32 0, i32 1
  store ptr %m_tail, ptr %cur_tail, align 8
  %2 = load ptr, ptr %cur_head, align 8
  %3 = load ptr, ptr %2, align 8
  %m_next = getelementptr inbounds %"struct.nla::emonics::cell", ptr %3, i32 0, i32 0
  %4 = load ptr, ptr %m_next, align 8
  store ptr %4, ptr %old_head, align 8
  %5 = load ptr, ptr %old_head, align 8
  %6 = load ptr, ptr %cur_head, align 8
  %7 = load ptr, ptr %6, align 8
  %cmp = icmp eq ptr %5, %7
  br i1 %cmp, label %if.then, label %if.else

if.then:                                          ; preds = %entry
  %8 = load ptr, ptr %cur_head, align 8
  store ptr null, ptr %8, align 8
  %9 = load ptr, ptr %cur_tail, align 8
  store ptr null, ptr %9, align 8
  br label %if.end

if.else:                                          ; preds = %entry
  %10 = load ptr, ptr %old_head, align 8
  %11 = load ptr, ptr %cur_head, align 8
  store ptr %10, ptr %11, align 8
  %12 = load ptr, ptr %old_head, align 8
  %13 = load ptr, ptr %cur_tail, align 8
  %14 = load ptr, ptr %13, align 8
  %m_next2 = getelementptr inbounds %"struct.nla::emonics::cell", ptr %14, i32 0, i32 0
  store ptr %12, ptr %m_next2, align 8
  br label %if.end

if.end:                                           ; preds = %if.else, %if.then
  ret void
}