; Function Attrs: mustprogress nofree norecurse nosync nounwind willreturn memory(readwrite, inaccessiblemem: none) uwtable
define hidden void @_ZN3nla7emonics11remove_cellERNS0_9head_tailE(ptr nocapture noundef nonnull readnone align 8 dereferenceable(216) %this, ptr nocapture noundef nonnull align 8 dereferenceable(16) %v) local_unnamed_addr #5 align 2 {
entry:
  %0 = load ptr, ptr %v, align 8
  %1 = load ptr, ptr %0, align 8
  %cmp = icmp eq ptr %1, %0
  br i1 %cmp, label %if.then, label %if.else

if.then:                                          ; preds = %entry
  tail call void @llvm.memset.p0.i64(ptr noundef nonnull align 8 dereferenceable(16) %v, i8 0, i64 16, i1 false)
  br label %if.end

if.else:                                          ; preds = %entry
  %m_tail = getelementptr inbounds i8, ptr %v, i64 8
  store ptr %1, ptr %v, align 8
  %2 = load ptr, ptr %m_tail, align 8
  store ptr %1, ptr %2, align 8
  br label %if.end

if.end:                                           ; preds = %if.else, %if.then
  ret void
}